; Function Attrs: mustprogress uwtable
define hidden void @_ZN3ue220ComponentAlternation13notePositionsERNS_18GlushkovBuildStateE(ptr noundef nonnull align 8 dereferenceable(40) %this, ptr noundef nonnull align 8 dereferenceable(8) %bs) unnamed_addr #0 align 2 {
entry:
  %vtable = load ptr, ptr %bs, align 8
  %vfn = getelementptr inbounds i8, ptr %vtable, i64 16
  %0 = load ptr, ptr %vfn, align 8
  %call = tail call noundef nonnull align 8 dereferenceable(8) ptr %0(ptr noundef nonnull align 8 dereferenceable(8) %bs)
  %vtable2 = load ptr, ptr %call, align 8
  %vfn3 = getelementptr inbounds i8, ptr %vtable2, i64 120
  %1 = load ptr, ptr %vfn3, align 8
  %call4 = tail call noundef i32 %1(ptr noundef nonnull align 8 dereferenceable(8) %call)
  %children = getelementptr inbounds i8, ptr %this, i64 16
  %2 = load ptr, ptr %children, align 8
  %_M_finish.i = getelementptr inbounds i8, ptr %this, i64 24
  %3 = load ptr, ptr %_M_finish.i, align 8
  %cmp.i.not6 = icmp eq ptr %2, %3
  br i1 %cmp.i.not6, label %for.end, label %for.body

for.body:                                         ; preds = %entry, %for.body
  %__begin1.sroa.0.07 = phi ptr [ %incdec.ptr.i, %for.body ], [ %2, %entry ]
  %4 = load ptr, ptr %__begin1.sroa.0.07, align 8
  %vtable11 = load ptr, ptr %4, align 8
  %vfn12 = getelementptr inbounds i8, ptr %vtable11, i64 88
  %5 = load ptr, ptr %vfn12, align 8
  tail call void %5(ptr noundef nonnull align 8 dereferenceable(16) %4, ptr noundef nonnull align 8 dereferenceable(8) %bs)
  %incdec.ptr.i = getelementptr inbounds i8, ptr %__begin1.sroa.0.07, i64 8
  %cmp.i.not = icmp eq ptr %incdec.ptr.i, %3
  br i1 %cmp.i.not, label %for.end, label %for.body

for.end:                                          ; preds = %for.body, %entry
  %vtable14 = load ptr, ptr %bs, align 8
  %vfn15 = getelementptr inbounds i8, ptr %vtable14, i64 16
  %6 = load ptr, ptr %vfn15, align 8
  %call16 = tail call noundef nonnull align 8 dereferenceable(8) ptr %6(ptr noundef nonnull align 8 dereferenceable(8) %bs)
  %vtable17 = load ptr, ptr %call16, align 8
  %vfn18 = getelementptr inbounds i8, ptr %vtable17, i64 120
  %7 = load ptr, ptr %vfn18, align 8
  %call19 = tail call noundef i32 %7(ptr noundef nonnull align 8 dereferenceable(8) %call16)
  tail call void @_ZN3ue29Component15recordPosBoundsEjj(ptr noundef nonnull align 8 dereferenceable(16) %this, i32 noundef %call4, i32 noundef %call19)
  ret void
}